	.arch armv8-a
	.file	"bounds.c"
// GNU C89 (GCC) version 11.2.0 (aarch64-slackware-linux)
//	compiled by GNU C version 11.2.0, GMP version 6.2.1, MPFR version 4.1.0, MPC version 1.2.1, isl version isl-0.24-GMP

// GGC heuristics: --param ggc-min-expand=100 --param ggc-min-heapsize=131072
// options passed: -mlittle-endian -mgeneral-regs-only -mabi=lp64 -g -Os -std=gnu90 -p -fno-strict-aliasing -fno-common -fshort-wchar -fno-PIE -fno-asynchronous-unwind-tables -fno-delete-null-pointer-checks -fno-allow-store-data-races -fstack-protector-strong -fno-omit-frame-pointer -fno-optimize-sibling-calls -fno-var-tracking-assignments -fno-strict-overflow -fno-merge-all-constants -fmerge-constants -fstack-check=no -fconserve-stack
	.text
.Ltext0:
	.file 0 "/home/dev/images_build_kit/build/pkg/kernel-source/usr/src/linux-4.19.210" "kernel/bounds.c"
	.global	_mcount
	.section	.text.startup,"ax",@progbits
	.align	2
	.global	main
	.type	main, %function
main:
.LFB513:
	.file 1 "kernel/bounds.c"
	.loc 1 17 1 view -0
	.cfi_startproc
	stp	x29, x30, [sp, -16]!	//,,,
	.cfi_def_cfa_offset 16
	.cfi_offset 29, -16
	.cfi_offset 30, -8
	mov	x29, sp	//,
// kernel/bounds.c:17: {
	.loc 1 17 1 is_stmt 0 view .LVU1
	hint	7 // xpaclri
	mov	x0, x30	//,
	bl	_mcount		//
.LVL0:
	.loc 1 19 2 is_stmt 1 view .LVU2
#APP
// 19 "kernel/bounds.c" 1
	
.ascii "->NR_PAGEFLAGS 22 __NR_PAGEFLAGS"	//
// 0 "" 2
	.loc 1 20 2 view .LVU3
// 20 "kernel/bounds.c" 1
	
.ascii "->MAX_NR_ZONES 3 __MAX_NR_ZONES"	//
// 0 "" 2
	.loc 1 22 2 view .LVU4
// 22 "kernel/bounds.c" 1
	
.ascii "->NR_CPUS_BITS 3 ilog2(CONFIG_NR_CPUS)"	//
// 0 "" 2
	.loc 1 24 2 view .LVU5
// 24 "kernel/bounds.c" 1
	
.ascii "->SPINLOCK_SIZE 24 sizeof(spinlock_t)"	//
// 0 "" 2
	.loc 1 27 2 view .LVU6
// kernel/bounds.c:28: }
	.loc 1 28 1 is_stmt 0 view .LVU7
#NO_APP
	mov	w0, 0	//,
	ldp	x29, x30, [sp], 16	//,,,
	.cfi_restore 30
	.cfi_restore 29
	.cfi_def_cfa_offset 0
	ret	
	.cfi_endproc
.LFE513:
	.size	main, .-main
	.text
.Letext0:
	.file 2 "./include/linux/page-flags.h"
	.file 3 "./include/linux/mmzone.h"
	.section	.note.GNU-stack,"",@progbits
